target datalayout = "e-m:e-p270:32:32-p271:32:32-p272:64:64-i64:64-i128:128-f80:128-n8:16:32:64-S128"
target triple = "x86_64-pc-linux-gnu"

%"class.arrow::compute::FunctionOptions" = type { ptr, ptr }
%"class.std::vector" = type { %"struct.std::_Vector_base" }
%"struct.std::_Vector_base" = type { %"struct.std::_Vector_base<arrow::compute::SortKey, std::allocator<arrow::compute::SortKey>>::_Vector_impl" }
%"struct.std::_Vector_base<arrow::compute::SortKey, std::allocator<arrow::compute::SortKey>>::_Vector_impl" = type { %"struct.std::_Vector_base<arrow::compute::SortKey, std::allocator<arrow::compute::SortKey>>::_Vector_impl_data" }
%"struct.std::_Vector_base<arrow::compute::SortKey, std::allocator<arrow::compute::SortKey>>::_Vector_impl_data" = type { ptr, ptr, ptr }
%"class.arrow::compute::RankOptions" = type { %"class.arrow::compute::FunctionOptions", %"class.std::vector", i32, i32 }

@_ZN5arrow7compute8internal12_GLOBAL__N_116kRankOptionsTypeE = internal global ptr null, align 8
@_ZTVN5arrow7compute11RankOptionsE = linkonce_odr unnamed_addr constant { [4 x ptr] } { [4 x ptr] [ptr null, ptr @_ZTIN5arrow7compute11RankOptionsE, ptr @_ZN5arrow7compute11RankOptionsD2Ev, ptr @_ZN5arrow7compute11RankOptionsD0Ev] }, comdat, align 8
@_ZTVN5arrow7compute15FunctionOptionsE = linkonce_odr unnamed_addr constant { [4 x ptr] } { [4 x ptr] [ptr null, ptr @_ZTIN5arrow7compute15FunctionOptionsE, ptr @_ZN5arrow4util18EqualityComparableINS_7compute15FunctionOptionsEED2Ev, ptr @_ZN5arrow7compute15FunctionOptionsD0Ev] }, comdat, align 8

; Function Attrs: mustprogress nounwind uwtable
define linkonce_odr void @_ZNSt15__new_allocatorIN5arrow7compute7SortKeyEEC2ERKS3_(ptr noundef nonnull align 1 dereferenceable(1) %0, ptr noundef nonnull align 1 dereferenceable(1) %1) unnamed_addr #0 comdat align 2 {
  %3 = alloca ptr, align 8
  %4 = alloca ptr, align 8
  store ptr %0, ptr %3, align 8, !tbaa !375
  store ptr %1, ptr %4, align 8, !tbaa !375
  ret void
}

; Function Attrs: mustprogress nounwind uwtable
define linkonce_odr void @_ZNSt12_Vector_baseIN5arrow7compute7SortKeyESaIS2_EE17_Vector_impl_dataC2EOS5_(ptr noundef nonnull align 8 dereferenceable(24) %0, ptr noundef nonnull align 8 dereferenceable(24) %1) unnamed_addr #0 comdat align 2 {
  %3 = alloca ptr, align 8
  %4 = alloca ptr, align 8
  store ptr %0, ptr %3, align 8, !tbaa !372
  store ptr %1, ptr %4, align 8, !tbaa !372
  %5 = load ptr, ptr %3, align 8
  %6 = getelementptr inbounds nuw %"struct.std::_Vector_base<arrow::compute::SortKey, std::allocator<arrow::compute::SortKey>>::_Vector_impl_data", ptr %5, i32 0, i32 0
  %7 = load ptr, ptr %4, align 8, !tbaa !372
  %8 = getelementptr inbounds nuw %"struct.std::_Vector_base<arrow::compute::SortKey, std::allocator<arrow::compute::SortKey>>::_Vector_impl_data", ptr %7, i32 0, i32 0
  %9 = load ptr, ptr %8, align 8, !tbaa !213
  store ptr %9, ptr %6, align 8, !tbaa !213
  %10 = getelementptr inbounds nuw %"struct.std::_Vector_base<arrow::compute::SortKey, std::allocator<arrow::compute::SortKey>>::_Vector_impl_data", ptr %5, i32 0, i32 1
  %11 = load ptr, ptr %4, align 8, !tbaa !372
  %12 = getelementptr inbounds nuw %"struct.std::_Vector_base<arrow::compute::SortKey, std::allocator<arrow::compute::SortKey>>::_Vector_impl_data", ptr %11, i32 0, i32 1
  %13 = load ptr, ptr %12, align 8, !tbaa !214
  store ptr %13, ptr %10, align 8, !tbaa !214
  %14 = getelementptr inbounds nuw %"struct.std::_Vector_base<arrow::compute::SortKey, std::allocator<arrow::compute::SortKey>>::_Vector_impl_data", ptr %5, i32 0, i32 2
  %15 = load ptr, ptr %4, align 8, !tbaa !372
  %16 = getelementptr inbounds nuw %"struct.std::_Vector_base<arrow::compute::SortKey, std::allocator<arrow::compute::SortKey>>::_Vector_impl_data", ptr %15, i32 0, i32 2
  %17 = load ptr, ptr %16, align 8, !tbaa !374
  store ptr %17, ptr %14, align 8, !tbaa !374
  %18 = load ptr, ptr %4, align 8, !tbaa !372
  %19 = getelementptr inbounds nuw %"struct.std::_Vector_base<arrow::compute::SortKey, std::allocator<arrow::compute::SortKey>>::_Vector_impl_data", ptr %18, i32 0, i32 2
  store ptr null, ptr %19, align 8, !tbaa !374
  %20 = load ptr, ptr %4, align 8, !tbaa !372
  %21 = getelementptr inbounds nuw %"struct.std::_Vector_base<arrow::compute::SortKey, std::allocator<arrow::compute::SortKey>>::_Vector_impl_data", ptr %20, i32 0, i32 1
  store ptr null, ptr %21, align 8, !tbaa !214
  %22 = load ptr, ptr %4, align 8, !tbaa !372
  %23 = getelementptr inbounds nuw %"struct.std::_Vector_base<arrow::compute::SortKey, std::allocator<arrow::compute::SortKey>>::_Vector_impl_data", ptr %22, i32 0, i32 0
  store ptr null, ptr %23, align 8, !tbaa !213
  ret void
}

; Function Attrs: mustprogress nounwind uwtable
define linkonce_odr void @_ZNSaIN5arrow7compute7SortKeyEEC2ERKS2_(ptr noundef nonnull align 1 dereferenceable(1) %0, ptr noundef nonnull align 1 dereferenceable(1) %1) unnamed_addr #0 comdat align 2 {
  %3 = alloca ptr, align 8
  %4 = alloca ptr, align 8
  store ptr %0, ptr %3, align 8, !tbaa !358
  store ptr %1, ptr %4, align 8, !tbaa !358
  %5 = load ptr, ptr %3, align 8
  %6 = load ptr, ptr %4, align 8, !tbaa !358
  call void @_ZNSt15__new_allocatorIN5arrow7compute7SortKeyEEC2ERKS3_(ptr noundef nonnull align 1 dereferenceable(1) %5, ptr noundef nonnull align 1 dereferenceable(1) %6) #17
  ret void
}

; Function Attrs: mustprogress nounwind uwtable
define linkonce_odr void @_ZNSt12_Vector_baseIN5arrow7compute7SortKeyESaIS2_EE12_Vector_implC2EOS5_(ptr noundef nonnull align 8 dereferenceable(24) %0, ptr noundef nonnull align 8 dereferenceable(24) %1) unnamed_addr #0 comdat align 2 {
  %3 = alloca ptr, align 8
  %4 = alloca ptr, align 8
  store ptr %0, ptr %3, align 8, !tbaa !370
  store ptr %1, ptr %4, align 8, !tbaa !370
  %5 = load ptr, ptr %3, align 8
  %6 = load ptr, ptr %4, align 8, !tbaa !370
  call void @_ZNSaIN5arrow7compute7SortKeyEEC2ERKS2_(ptr noundef nonnull align 1 dereferenceable(1) %5, ptr noundef nonnull align 1 dereferenceable(1) %6) #17
  %7 = load ptr, ptr %4, align 8, !tbaa !370
  call void @_ZNSt12_Vector_baseIN5arrow7compute7SortKeyESaIS2_EE17_Vector_impl_dataC2EOS5_(ptr noundef nonnull align 8 dereferenceable(24) %5, ptr noundef nonnull align 8 dereferenceable(24) %7) #17
  ret void
}

; Function Attrs: mustprogress nounwind uwtable
define linkonce_odr void @_ZNSt12_Vector_baseIN5arrow7compute7SortKeyESaIS2_EEC2EOS4_(ptr noundef nonnull align 8 dereferenceable(24) %0, ptr noundef nonnull align 8 dereferenceable(24) %1) unnamed_addr #0 comdat align 2 {
  %3 = alloca ptr, align 8
  %4 = alloca ptr, align 8
  store ptr %0, ptr %3, align 8, !tbaa !368
  store ptr %1, ptr %4, align 8, !tbaa !368
  %5 = load ptr, ptr %3, align 8
  %6 = getelementptr inbounds nuw %"struct.std::_Vector_base", ptr %5, i32 0, i32 0
  %7 = load ptr, ptr %4, align 8, !tbaa !368
  %8 = getelementptr inbounds nuw %"struct.std::_Vector_base", ptr %7, i32 0, i32 0
  call void @_ZNSt12_Vector_baseIN5arrow7compute7SortKeyESaIS2_EE12_Vector_implC2EOS5_(ptr noundef nonnull align 8 dereferenceable(24) %6, ptr noundef nonnull align 8 dereferenceable(24) %8) #17
  ret void
}

; Function Attrs: mustprogress nounwind uwtable
define linkonce_odr void @_ZNSt6vectorIN5arrow7compute7SortKeyESaIS2_EEC2EOS4_(ptr noundef nonnull align 8 dereferenceable(24) %0, ptr noundef nonnull align 8 dereferenceable(24) %1) unnamed_addr #0 comdat align 2 {
  %3 = alloca ptr, align 8
  %4 = alloca ptr, align 8
  store ptr %0, ptr %3, align 8, !tbaa !202
  store ptr %1, ptr %4, align 8, !tbaa !202
  %5 = load ptr, ptr %3, align 8
  %6 = load ptr, ptr %4, align 8, !tbaa !202
  call void @_ZNSt12_Vector_baseIN5arrow7compute7SortKeyESaIS2_EEC2EOS4_(ptr noundef nonnull align 8 dereferenceable(24) %5, ptr noundef nonnull align 8 dereferenceable(24) %6) #17
  ret void
}

; Function Attrs: mustprogress nounwind uwtable
define linkonce_odr void @_ZN5arrow7compute15FunctionOptionsC2EPKNS0_19FunctionOptionsTypeE(ptr noundef nonnull align 8 dereferenceable(16) %0, ptr noundef %1) unnamed_addr #0 comdat align 2 {
  %3 = alloca ptr, align 8
  %4 = alloca ptr, align 8
  store ptr %0, ptr %3, align 8, !tbaa !170
  store ptr %1, ptr %4, align 8, !tbaa !53
  %5 = load ptr, ptr %3, align 8
  store ptr getelementptr inbounds inrange(-16, 16) ({ [4 x ptr] }, ptr @_ZTVN5arrow7compute15FunctionOptionsE, i32 0, i32 0, i32 2), ptr %5, align 8, !tbaa !165
  %6 = getelementptr inbounds nuw %"class.arrow::compute::FunctionOptions", ptr %5, i32 0, i32 1
  %7 = load ptr, ptr %4, align 8, !tbaa !53
  store ptr %7, ptr %6, align 8, !tbaa !172
  ret void
}

; Function Attrs: mustprogress uwtable
define void @_ZN5arrow7compute11RankOptionsC2ESt6vectorINS0_7SortKeyESaIS3_EENS0_13NullPlacementENS1_10TiebreakerE(ptr noundef nonnull align 8 dereferenceable(48) %0, ptr noundef %1, i32 noundef %2, i32 noundef %3) unnamed_addr #2 align 2 {
  %5 = alloca ptr, align 8
  %6 = alloca ptr, align 8
  %7 = alloca i32, align 4
  %8 = alloca i32, align 4
  store ptr %0, ptr %5, align 8, !tbaa !249
  store ptr %1, ptr %6, align 8, !tbaa !202
  store i32 %2, ptr %7, align 4, !tbaa !195
  store i32 %3, ptr %8, align 4, !tbaa !251
  %9 = load ptr, ptr %5, align 8
  %10 = load ptr, ptr @_ZN5arrow7compute8internal12_GLOBAL__N_116kRankOptionsTypeE, align 8, !tbaa !53
  call void @_ZN5arrow7compute15FunctionOptionsC2EPKNS0_19FunctionOptionsTypeE(ptr noundef nonnull align 8 dereferenceable(16) %9, ptr noundef %10)
  store ptr getelementptr inbounds inrange(-16, 16) ({ [4 x ptr] }, ptr @_ZTVN5arrow7compute11RankOptionsE, i32 0, i32 0, i32 2), ptr %9, align 8, !tbaa !165
  %11 = getelementptr inbounds nuw %"class.arrow::compute::RankOptions", ptr %9, i32 0, i32 1
  call void @_ZNSt6vectorIN5arrow7compute7SortKeyESaIS2_EEC2EOS4_(ptr noundef nonnull align 8 dereferenceable(24) %11, ptr noundef nonnull align 8 dereferenceable(24) %1) #17
  %12 = getelementptr inbounds nuw %"class.arrow::compute::RankOptions", ptr %9, i32 0, i32 2
  %13 = load i32, ptr %7, align 4, !tbaa !195
  store i32 %13, ptr %12, align 8, !tbaa !253
  %14 = getelementptr inbounds nuw %"class.arrow::compute::RankOptions", ptr %9, i32 0, i32 3
  %15 = load i32, ptr %8, align 4, !tbaa !251
  store i32 %15, ptr %14, align 4, !tbaa !255
  ret void
}