; Function Attrs: mustprogress nofree norecurse nosync nounwind willreturn memory(read, argmem: readwrite, inaccessiblemem: none) uwtable
define void @_ZN5arrow7compute11RankOptionsC2ESt6vectorINS0_7SortKeyESaIS3_EENS0_13NullPlacementENS1_10TiebreakerE(ptr noundef nonnull writeonly align 8 captures(none) dereferenceable(48) initializes((0, 48)) %0, ptr noundef captures(none) %1, i32 noundef %2, i32 noundef %3) unnamed_addr #3 align 2 {
  %5 = load ptr, ptr @_ZN5arrow7compute8internal12_GLOBAL__N_116kRankOptionsTypeE, align 8, !tbaa !32
  %6 = getelementptr inbounds nuw i8, ptr %0, i64 8
  store ptr %5, ptr %6, align 8, !tbaa !35
  store ptr getelementptr inbounds nuw inrange(-16, 16) (i8, ptr @_ZTVN5arrow7compute11RankOptionsE, i64 16), ptr %0, align 8, !tbaa !37
  %7 = getelementptr inbounds nuw i8, ptr %0, i64 16
  %8 = load ptr, ptr %1, align 8, !tbaa !59
  store ptr %8, ptr %7, align 8, !tbaa !59
  %9 = getelementptr inbounds nuw i8, ptr %0, i64 24
  %10 = getelementptr inbounds nuw i8, ptr %1, i64 8
  %11 = load ptr, ptr %10, align 8, !tbaa !62
  store ptr %11, ptr %9, align 8, !tbaa !62
  %12 = getelementptr inbounds nuw i8, ptr %0, i64 32
  %13 = getelementptr inbounds nuw i8, ptr %1, i64 16
  %14 = load ptr, ptr %13, align 8, !tbaa !63
  store ptr %14, ptr %12, align 8, !tbaa !63
  tail call void @llvm.memset.p0.i64(ptr noundef nonnull align 8 dereferenceable(24) %1, i8 0, i64 24, i1 false)
  %15 = getelementptr inbounds nuw i8, ptr %0, i64 40
  store i32 %2, ptr %15, align 8, !tbaa !97
  %16 = getelementptr inbounds nuw i8, ptr %0, i64 44
  store i32 %3, ptr %16, align 4, !tbaa !100
  ret void
}